target datalayout = "e-m:e-p270:32:32-p271:32:32-p272:64:64-i64:64-i128:128-f80:128-n8:16:32:64-S128"
target triple = "x86_64-unknown-linux-gnu"

@.str.1 = private unnamed_addr constant [12 x i8] c"UNSPECIFIED\00", align 1
@.str.2 = private unnamed_addr constant [26 x i8] c"UNABLE_TO_GET_ISSUER_CERT\00", align 1
@.str.3 = private unnamed_addr constant [18 x i8] c"UNABLE_TO_GET_CRL\00", align 1
@.str.4 = private unnamed_addr constant [33 x i8] c"UNABLE_TO_DECRYPT_CERT_SIGNATURE\00", align 1
@.str.5 = private unnamed_addr constant [32 x i8] c"UNABLE_TO_DECRYPT_CRL_SIGNATURE\00", align 1
@.str.6 = private unnamed_addr constant [35 x i8] c"UNABLE_TO_DECODE_ISSUER_PUBLIC_KEY\00", align 1
@.str.7 = private unnamed_addr constant [23 x i8] c"CERT_SIGNATURE_FAILURE\00", align 1
@.str.8 = private unnamed_addr constant [22 x i8] c"CRL_SIGNATURE_FAILURE\00", align 1
@.str.9 = private unnamed_addr constant [19 x i8] c"CERT_NOT_YET_VALID\00", align 1
@.str.10 = private unnamed_addr constant [17 x i8] c"CERT_HAS_EXPIRED\00", align 1
@.str.11 = private unnamed_addr constant [18 x i8] c"CRL_NOT_YET_VALID\00", align 1
@.str.12 = private unnamed_addr constant [16 x i8] c"CRL_HAS_EXPIRED\00", align 1
@.str.13 = private unnamed_addr constant [31 x i8] c"ERROR_IN_CERT_NOT_BEFORE_FIELD\00", align 1
@.str.14 = private unnamed_addr constant [30 x i8] c"ERROR_IN_CERT_NOT_AFTER_FIELD\00", align 1
@.str.15 = private unnamed_addr constant [31 x i8] c"ERROR_IN_CRL_LAST_UPDATE_FIELD\00", align 1
@.str.16 = private unnamed_addr constant [31 x i8] c"ERROR_IN_CRL_NEXT_UPDATE_FIELD\00", align 1
@.str.17 = private unnamed_addr constant [11 x i8] c"OUT_OF_MEM\00", align 1
@.str.18 = private unnamed_addr constant [28 x i8] c"DEPTH_ZERO_SELF_SIGNED_CERT\00", align 1
@.str.19 = private unnamed_addr constant [26 x i8] c"SELF_SIGNED_CERT_IN_CHAIN\00", align 1
@.str.20 = private unnamed_addr constant [34 x i8] c"UNABLE_TO_GET_ISSUER_CERT_LOCALLY\00", align 1
@.str.21 = private unnamed_addr constant [32 x i8] c"UNABLE_TO_VERIFY_LEAF_SIGNATURE\00", align 1
@.str.22 = private unnamed_addr constant [20 x i8] c"CERT_CHAIN_TOO_LONG\00", align 1
@.str.23 = private unnamed_addr constant [13 x i8] c"CERT_REVOKED\00", align 1
@.str.24 = private unnamed_addr constant [11 x i8] c"INVALID_CA\00", align 1
@.str.25 = private unnamed_addr constant [21 x i8] c"PATH_LENGTH_EXCEEDED\00", align 1
@.str.26 = private unnamed_addr constant [16 x i8] c"INVALID_PURPOSE\00", align 1
@.str.27 = private unnamed_addr constant [15 x i8] c"CERT_UNTRUSTED\00", align 1
@.str.28 = private unnamed_addr constant [14 x i8] c"CERT_REJECTED\00", align 1
@.str.29 = private unnamed_addr constant [18 x i8] c"HOSTNAME_MISMATCH\00", align 1

; Function Attrs: mustprogress nounwind uwtable
define dso_local noundef ptr @_ZN4node6crypto13X509ErrorCodeEl(i64 noundef %err) #4 {
entry:
  %err.addr = alloca i64, align 8
  %code = alloca ptr, align 8
  store i64 %err, ptr %err.addr, align 8
  store ptr @.str.1, ptr %code, align 8
  %0 = load i64, ptr %err.addr, align 8
  switch i64 %0, label %sw.epilog [
    i64 2, label %sw.bb
    i64 3, label %sw.bb1
    i64 4, label %sw.bb2
    i64 5, label %sw.bb3
    i64 6, label %sw.bb4
    i64 7, label %sw.bb5
    i64 8, label %sw.bb6
    i64 9, label %sw.bb7
    i64 10, label %sw.bb8
    i64 11, label %sw.bb9
    i64 12, label %sw.bb10
    i64 13, label %sw.bb11
    i64 14, label %sw.bb12
    i64 15, label %sw.bb13
    i64 16, label %sw.bb14
    i64 17, label %sw.bb15
    i64 18, label %sw.bb16
    i64 19, label %sw.bb17
    i64 20, label %sw.bb18
    i64 21, label %sw.bb19
    i64 22, label %sw.bb20
    i64 23, label %sw.bb21
    i64 79, label %sw.bb22
    i64 25, label %sw.bb23
    i64 26, label %sw.bb24
    i64 27, label %sw.bb25
    i64 28, label %sw.bb26
    i64 62, label %sw.bb27
  ]

sw.bb:                                            ; preds = %entry
  store ptr @.str.2, ptr %code, align 8
  br label %sw.epilog

sw.bb1:                                           ; preds = %entry
  store ptr @.str.3, ptr %code, align 8
  br label %sw.epilog

sw.bb2:                                           ; preds = %entry
  store ptr @.str.4, ptr %code, align 8
  br label %sw.epilog

sw.bb3:                                           ; preds = %entry
  store ptr @.str.5, ptr %code, align 8
  br label %sw.epilog

sw.bb4:                                           ; preds = %entry
  store ptr @.str.6, ptr %code, align 8
  br label %sw.epilog

sw.bb5:                                           ; preds = %entry
  store ptr @.str.7, ptr %code, align 8
  br label %sw.epilog

sw.bb6:                                           ; preds = %entry
  store ptr @.str.8, ptr %code, align 8
  br label %sw.epilog

sw.bb7:                                           ; preds = %entry
  store ptr @.str.9, ptr %code, align 8
  br label %sw.epilog

sw.bb8:                                           ; preds = %entry
  store ptr @.str.10, ptr %code, align 8
  br label %sw.epilog

sw.bb9:                                           ; preds = %entry
  store ptr @.str.11, ptr %code, align 8
  br label %sw.epilog

sw.bb10:                                          ; preds = %entry
  store ptr @.str.12, ptr %code, align 8
  br label %sw.epilog

sw.bb11:                                          ; preds = %entry
  store ptr @.str.13, ptr %code, align 8
  br label %sw.epilog

sw.bb12:                                          ; preds = %entry
  store ptr @.str.14, ptr %code, align 8
  br label %sw.epilog

sw.bb13:                                          ; preds = %entry
  store ptr @.str.15, ptr %code, align 8
  br label %sw.epilog

sw.bb14:                                          ; preds = %entry
  store ptr @.str.16, ptr %code, align 8
  br label %sw.epilog

sw.bb15:                                          ; preds = %entry
  store ptr @.str.17, ptr %code, align 8
  br label %sw.epilog

sw.bb16:                                          ; preds = %entry
  store ptr @.str.18, ptr %code, align 8
  br label %sw.epilog

sw.bb17:                                          ; preds = %entry
  store ptr @.str.19, ptr %code, align 8
  br label %sw.epilog

sw.bb18:                                          ; preds = %entry
  store ptr @.str.20, ptr %code, align 8
  br label %sw.epilog

sw.bb19:                                          ; preds = %entry
  store ptr @.str.21, ptr %code, align 8
  br label %sw.epilog

sw.bb20:                                          ; preds = %entry
  store ptr @.str.22, ptr %code, align 8
  br label %sw.epilog

sw.bb21:                                          ; preds = %entry
  store ptr @.str.23, ptr %code, align 8
  br label %sw.epilog

sw.bb22:                                          ; preds = %entry
  store ptr @.str.24, ptr %code, align 8
  br label %sw.epilog

sw.bb23:                                          ; preds = %entry
  store ptr @.str.25, ptr %code, align 8
  br label %sw.epilog

sw.bb24:                                          ; preds = %entry
  store ptr @.str.26, ptr %code, align 8
  br label %sw.epilog

sw.bb25:                                          ; preds = %entry
  store ptr @.str.27, ptr %code, align 8
  br label %sw.epilog

sw.bb26:                                          ; preds = %entry
  store ptr @.str.28, ptr %code, align 8
  br label %sw.epilog

sw.bb27:                                          ; preds = %entry
  store ptr @.str.29, ptr %code, align 8
  br label %sw.epilog

sw.epilog:                                        ; preds = %sw.bb27, %sw.bb26, %sw.bb25, %sw.bb24, %sw.bb23, %sw.bb22, %sw.bb21, %sw.bb20, %sw.bb19, %sw.bb18, %sw.bb17, %sw.bb16, %sw.bb15, %sw.bb14, %sw.bb13, %sw.bb12, %sw.bb11, %sw.bb10, %sw.bb9, %sw.bb8, %sw.bb7, %sw.bb6, %sw.bb5, %sw.bb4, %sw.bb3, %sw.bb2, %sw.bb1, %sw.bb, %entry
  %1 = load ptr, ptr %code, align 8
  ret ptr %1
}