; Function Attrs: mustprogress nofree norecurse nosync nounwind willreturn memory(none) uwtable
define dso_local noundef nonnull ptr @_ZN4node6crypto13X509ErrorCodeEl(i64 noundef %err) local_unnamed_addr #5 {
entry:
  switch i64 %err, label %sw.epilog [
    i64 2, label %sw.bb
    i64 3, label %sw.bb1
    i64 4, label %sw.bb2
    i64 5, label %sw.bb3
    i64 6, label %sw.bb4
    i64 7, label %sw.bb5
    i64 8, label %sw.bb6
    i64 9, label %sw.bb7
    i64 10, label %sw.bb8
    i64 11, label %sw.bb9
    i64 12, label %sw.bb10
    i64 13, label %sw.bb11
    i64 14, label %sw.bb12
    i64 15, label %sw.bb13
    i64 16, label %sw.bb14
    i64 17, label %sw.bb15
    i64 18, label %sw.bb16
    i64 19, label %sw.bb17
    i64 20, label %sw.bb18
    i64 21, label %sw.bb19
    i64 22, label %sw.bb20
    i64 23, label %sw.bb21
    i64 79, label %sw.bb22
    i64 25, label %sw.bb23
    i64 26, label %sw.bb24
    i64 27, label %sw.bb25
    i64 28, label %sw.bb26
    i64 62, label %sw.bb27
  ]

sw.bb:                                            ; preds = %entry
  br label %sw.epilog

sw.bb1:                                           ; preds = %entry
  br label %sw.epilog

sw.bb2:                                           ; preds = %entry
  br label %sw.epilog

sw.bb3:                                           ; preds = %entry
  br label %sw.epilog

sw.bb4:                                           ; preds = %entry
  br label %sw.epilog

sw.bb5:                                           ; preds = %entry
  br label %sw.epilog

sw.bb6:                                           ; preds = %entry
  br label %sw.epilog

sw.bb7:                                           ; preds = %entry
  br label %sw.epilog

sw.bb8:                                           ; preds = %entry
  br label %sw.epilog

sw.bb9:                                           ; preds = %entry
  br label %sw.epilog

sw.bb10:                                          ; preds = %entry
  br label %sw.epilog

sw.bb11:                                          ; preds = %entry
  br label %sw.epilog

sw.bb12:                                          ; preds = %entry
  br label %sw.epilog

sw.bb13:                                          ; preds = %entry
  br label %sw.epilog

sw.bb14:                                          ; preds = %entry
  br label %sw.epilog

sw.bb15:                                          ; preds = %entry
  br label %sw.epilog

sw.bb16:                                          ; preds = %entry
  br label %sw.epilog

sw.bb17:                                          ; preds = %entry
  br label %sw.epilog

sw.bb18:                                          ; preds = %entry
  br label %sw.epilog

sw.bb19:                                          ; preds = %entry
  br label %sw.epilog

sw.bb20:                                          ; preds = %entry
  br label %sw.epilog

sw.bb21:                                          ; preds = %entry
  br label %sw.epilog

sw.bb22:                                          ; preds = %entry
  br label %sw.epilog

sw.bb23:                                          ; preds = %entry
  br label %sw.epilog

sw.bb24:                                          ; preds = %entry
  br label %sw.epilog

sw.bb25:                                          ; preds = %entry
  br label %sw.epilog

sw.bb26:                                          ; preds = %entry
  br label %sw.epilog

sw.bb27:                                          ; preds = %entry
  br label %sw.epilog

sw.epilog:                                        ; preds = %sw.bb27, %sw.bb26, %sw.bb25, %sw.bb24, %sw.bb23, %sw.bb22, %sw.bb21, %sw.bb20, %sw.bb19, %sw.bb18, %sw.bb17, %sw.bb16, %sw.bb15, %sw.bb14, %sw.bb13, %sw.bb12, %sw.bb11, %sw.bb10, %sw.bb9, %sw.bb8, %sw.bb7, %sw.bb6, %sw.bb5, %sw.bb4, %sw.bb3, %sw.bb2, %sw.bb1, %sw.bb, %entry
  %code.0 = phi ptr [ @.str.1, %entry ], [ @.str.29, %sw.bb27 ], [ @.str.28, %sw.bb26 ], [ @.str.27, %sw.bb25 ], [ @.str.26, %sw.bb24 ], [ @.str.25, %sw.bb23 ], [ @.str.24, %sw.bb22 ], [ @.str.23, %sw.bb21 ], [ @.str.22, %sw.bb20 ], [ @.str.21, %sw.bb19 ], [ @.str.20, %sw.bb18 ], [ @.str.19, %sw.bb17 ], [ @.str.18, %sw.bb16 ], [ @.str.17, %sw.bb15 ], [ @.str.16, %sw.bb14 ], [ @.str.15, %sw.bb13 ], [ @.str.14, %sw.bb12 ], [ @.str.13, %sw.bb11 ], [ @.str.12, %sw.bb10 ], [ @.str.11, %sw.bb9 ], [ @.str.10, %sw.bb8 ], [ @.str.9, %sw.bb7 ], [ @.str.8, %sw.bb6 ], [ @.str.7, %sw.bb5 ], [ @.str.6, %sw.bb4 ], [ @.str.5, %sw.bb3 ], [ @.str.4, %sw.bb2 ], [ @.str.3, %sw.bb1 ], [ @.str.2, %sw.bb ]
  ret ptr %code.0
}